target datalayout = "e-m:e-p270:32:32-p271:32:32-p272:64:64-i64:64-i128:128-f80:128-n8:16:32:64-S128"
target triple = "x86_64-pc-linux-gnu"

%struct.translation_ctx_st = type { ptr, i32, i32, ptr, i32, i32, ptr, i64, ptr, ptr, [50 x i8], ptr, ptr, i64 }
%struct.ossl_param_st = type { ptr, i32, ptr, i64, i64 }

; Function Attrs: nounwind uwtable
define internal i32 @get_payload_bn(i32 noundef %0, ptr noundef %1, ptr noundef %2, ptr noundef %3) #0 {
  %5 = alloca i32, align 4
  %6 = alloca i32, align 4
  %7 = alloca ptr, align 8
  %8 = alloca ptr, align 8
  %9 = alloca ptr, align 8
  store i32 %0, ptr %6, align 4, !tbaa !8
  store ptr %1, ptr %7, align 8, !tbaa !11
  store ptr %2, ptr %8, align 8, !tbaa !43
  store ptr %3, ptr %9, align 8, !tbaa !103
  %10 = load ptr, ptr %9, align 8, !tbaa !103
  %11 = icmp eq ptr %10, null
  br i1 %11, label %12, label %13

12:                                               ; preds = %4
  store i32 0, ptr %5, align 4
  br label %29

13:                                               ; preds = %4
  %14 = load ptr, ptr %8, align 8, !tbaa !43
  %15 = getelementptr inbounds nuw %struct.translation_ctx_st, ptr %14, i32 0, i32 8
  %16 = load ptr, ptr %15, align 8, !tbaa !42
  %17 = getelementptr inbounds nuw %struct.ossl_param_st, ptr %16, i32 0, i32 1
  %18 = load i32, ptr %17, align 8, !tbaa !62
  %19 = icmp ne i32 %18, 2
  br i1 %19, label %20, label %21

20:                                               ; preds = %13
  store i32 0, ptr %5, align 4
  br label %29

21:                                               ; preds = %13
  %22 = load ptr, ptr %9, align 8, !tbaa !103
  %23 = load ptr, ptr %8, align 8, !tbaa !43
  %24 = getelementptr inbounds nuw %struct.translation_ctx_st, ptr %23, i32 0, i32 6
  store ptr %22, ptr %24, align 8, !tbaa !40
  %25 = load i32, ptr %6, align 4, !tbaa !8
  %26 = load ptr, ptr %7, align 8, !tbaa !11
  %27 = load ptr, ptr %8, align 8, !tbaa !43
  %28 = call i32 @default_fixup_args(i32 noundef %25, ptr noundef %26, ptr noundef %27)
  store i32 %28, ptr %5, align 4
  br label %29

29:                                               ; preds = %21, %20, %12
  %30 = load i32, ptr %5, align 4
  ret i32 %30
}

; Function Attrs: nounwind uwtable
define internal i32 @get_rsa_payload_exponent(i32 noundef %0, ptr noundef %1, ptr noundef %2, i64 noundef %3) #0 {
  %5 = alloca i32, align 4
  %6 = alloca ptr, align 8
  %7 = alloca ptr, align 8
  %8 = alloca i64, align 8
  %9 = alloca ptr, align 8
  %10 = alloca ptr, align 8
  %11 = alloca i64, align 8
  %12 = alloca [10 x ptr], align 16
  %13 = alloca [10 x ptr], align 16
  store i32 %0, ptr %5, align 4, !tbaa !8
  store ptr %1, ptr %6, align 8, !tbaa !11
  store ptr %2, ptr %7, align 8, !tbaa !43
  store i64 %3, ptr %8, align 8, !tbaa !51
  call void @llvm.lifetime.start.p0(i64 8, ptr %9) #9
  %14 = load ptr, ptr %7, align 8, !tbaa !43
  %15 = getelementptr inbounds nuw %struct.translation_ctx_st, ptr %14, i32 0, i32 6
  %16 = load ptr, ptr %15, align 8, !tbaa !40
  %17 = call ptr @EVP_PKEY_get0_RSA(ptr noundef %16)
  store ptr %17, ptr %9, align 8, !tbaa !104
  call void @llvm.lifetime.start.p0(i64 8, ptr %10) #9
  store ptr null, ptr %10, align 8, !tbaa !103
  %18 = load i64, ptr %8, align 8, !tbaa !51
  switch i64 %18, label %25 [
    i64 0, label %19
    i64 1, label %22
  ]

19:                                               ; preds = %4
  %20 = load ptr, ptr %9, align 8, !tbaa !104
  %21 = call ptr @RSA_get0_dmp1(ptr noundef %20)
  store ptr %21, ptr %10, align 8, !tbaa !103
  br label %45

22:                                               ; preds = %4
  %23 = load ptr, ptr %9, align 8, !tbaa !104
  %24 = call ptr @RSA_get0_dmq1(ptr noundef %23)
  store ptr %24, ptr %10, align 8, !tbaa !103
  br label %45

25:                                               ; preds = %4
  call void @llvm.lifetime.start.p0(i64 8, ptr %11) #9
  %26 = load ptr, ptr %9, align 8, !tbaa !104
  %27 = call i32 @RSA_get_multi_prime_extra_count(ptr noundef %26)
  %28 = sext i32 %27 to i64
  store i64 %28, ptr %11, align 8, !tbaa !51
  call void @llvm.lifetime.start.p0(i64 80, ptr %12) #9
  call void @llvm.lifetime.start.p0(i64 80, ptr %13) #9
  %29 = load i64, ptr %8, align 8, !tbaa !51
  %30 = sub i64 %29, 2
  %31 = load i64, ptr %11, align 8, !tbaa !51
  %32 = icmp ult i64 %30, %31
  br i1 %32, label %33, label %44

33:                                               ; preds = %25
  %34 = load ptr, ptr %9, align 8, !tbaa !104
  %35 = getelementptr inbounds [10 x ptr], ptr %12, i64 0, i64 0
  %36 = getelementptr inbounds [10 x ptr], ptr %13, i64 0, i64 0
  %37 = call i32 @RSA_get0_multi_prime_crt_params(ptr noundef %34, ptr noundef %35, ptr noundef %36)
  %38 = icmp ne i32 %37, 0
  br i1 %38, label %39, label %44

39:                                               ; preds = %33
  %40 = load i64, ptr %8, align 8, !tbaa !51
  %41 = sub i64 %40, 2
  %42 = getelementptr inbounds nuw [10 x ptr], ptr %12, i64 0, i64 %41
  %43 = load ptr, ptr %42, align 8, !tbaa !103
  store ptr %43, ptr %10, align 8, !tbaa !103
  br label %44

44:                                               ; preds = %39, %33, %25
  call void @llvm.lifetime.end.p0(i64 80, ptr %13) #9
  call void @llvm.lifetime.end.p0(i64 80, ptr %12) #9
  call void @llvm.lifetime.end.p0(i64 8, ptr %11) #9
  br label %45

45:                                               ; preds = %44, %22, %19
  %46 = load i32, ptr %5, align 4, !tbaa !8
  %47 = load ptr, ptr %6, align 8, !tbaa !11
  %48 = load ptr, ptr %7, align 8, !tbaa !43
  %49 = load ptr, ptr %10, align 8, !tbaa !103
  %50 = call i32 @get_payload_bn(i32 noundef %46, ptr noundef %47, ptr noundef %48, ptr noundef %49)
  call void @llvm.lifetime.end.p0(i64 8, ptr %10) #9
  call void @llvm.lifetime.end.p0(i64 8, ptr %9) #9
  ret i32 %50
}

; Function Attrs: nounwind uwtable
define internal i32 @get_rsa_payload_e7(i32 noundef %0, ptr noundef %1, ptr noundef %2) #0 {
  %4 = alloca i32, align 4
  %5 = alloca i32, align 4
  %6 = alloca ptr, align 8
  %7 = alloca ptr, align 8
  store i32 %0, ptr %5, align 4, !tbaa !8
  store ptr %1, ptr %6, align 8, !tbaa !11
  store ptr %2, ptr %7, align 8, !tbaa !43
  %8 = load ptr, ptr %7, align 8, !tbaa !43
  %9 = getelementptr inbounds nuw %struct.translation_ctx_st, ptr %8, i32 0, i32 6
  %10 = load ptr, ptr %9, align 8, !tbaa !40
  %11 = call i32 @EVP_PKEY_get_base_id(ptr noundef %10)
  %12 = icmp ne i32 %11, 6
  br i1 %12, label %13, label %20

13:                                               ; preds = %3
  %14 = load ptr, ptr %7, align 8, !tbaa !43
  %15 = getelementptr inbounds nuw %struct.translation_ctx_st, ptr %14, i32 0, i32 6
  %16 = load ptr, ptr %15, align 8, !tbaa !40
  %17 = call i32 @EVP_PKEY_get_base_id(ptr noundef %16)
  %18 = icmp ne i32 %17, 912
  br i1 %18, label %19, label %20

19:                                               ; preds = %13
  store i32 0, ptr %4, align 4
  br label %25

20:                                               ; preds = %13, %3
  %21 = load i32, ptr %5, align 4, !tbaa !8
  %22 = load ptr, ptr %6, align 8, !tbaa !11
  %23 = load ptr, ptr %7, align 8, !tbaa !43
  %24 = call i32 @get_rsa_payload_exponent(i32 noundef %21, ptr noundef %22, ptr noundef %23, i64 noundef 6)
  store i32 %24, ptr %4, align 4
  br label %25

25:                                               ; preds = %20, %19
  %26 = load i32, ptr %4, align 4
  ret i32 %26
}